target datalayout = "e-m:e-p270:32:32-p271:32:32-p272:64:64-i64:64-i128:128-f80:128-n8:16:32:64-S128"
target triple = "x86_64-pc-linux-gnu"

%struct.hmac_data_st = type { ptr, ptr, %struct.PROV_DIGEST, ptr, i64, i64, [13 x i8], i32, [64 x i8], i64 }
%struct.PROV_DIGEST = type { ptr, ptr, ptr }
%struct.ossl_param_st = type { ptr, i32, ptr, i64, i64 }

@.str.6 = private unnamed_addr constant [4 x i8] c"key\00", align 1
@.str.9 = private unnamed_addr constant [14 x i8] c"tls-data-size\00", align 1

; Function Attrs: inlinehint nounwind uwtable
define internal i32 @ossl_param_is_empty(ptr noundef %0) #5 {
  %2 = alloca ptr, align 8
  store ptr %0, ptr %2, align 8, !tbaa !29
  %3 = load ptr, ptr %2, align 8, !tbaa !29
  %4 = icmp eq ptr %3, null
  br i1 %4, label %10, label %5

5:                                                ; preds = %1
  %6 = load ptr, ptr %2, align 8, !tbaa !29
  %7 = getelementptr inbounds nuw %struct.ossl_param_st, ptr %6, i32 0, i32 0
  %8 = load ptr, ptr %7, align 8, !tbaa !42
  %9 = icmp eq ptr %8, null
  br label %10

10:                                               ; preds = %5, %1
  %11 = phi i1 [ true, %1 ], [ %9, %5 ]
  %12 = zext i1 %11 to i32
  ret i32 %12
}

; Function Attrs: nounwind uwtable
define internal i32 @hmac_set_ctx_params(ptr noundef %0, ptr noundef %1) #0 {
  %3 = alloca i32, align 4
  %4 = alloca ptr, align 8
  %5 = alloca ptr, align 8
  %6 = alloca ptr, align 8
  %7 = alloca ptr, align 8
  %8 = alloca ptr, align 8
  %9 = alloca i32, align 4
  store ptr %0, ptr %4, align 8, !tbaa !3
  store ptr %1, ptr %5, align 8, !tbaa !29
  call void @llvm.lifetime.start.p0(i64 8, ptr %6) #6
  %10 = load ptr, ptr %4, align 8, !tbaa !3
  store ptr %10, ptr %6, align 8, !tbaa !7
  call void @llvm.lifetime.start.p0(i64 8, ptr %7) #6
  %11 = load ptr, ptr %6, align 8, !tbaa !7
  %12 = getelementptr inbounds nuw %struct.hmac_data_st, ptr %11, i32 0, i32 0
  %13 = load ptr, ptr %12, align 8, !tbaa !18
  %14 = call ptr @ossl_prov_ctx_get0_libctx(ptr noundef %13)
  store ptr %14, ptr %7, align 8, !tbaa !36
  call void @llvm.lifetime.start.p0(i64 8, ptr %8) #6
  %15 = load ptr, ptr %5, align 8, !tbaa !29
  %16 = call i32 @ossl_param_is_empty(ptr noundef %15)
  %17 = icmp ne i32 %16, 0
  br i1 %17, label %18, label %19

18:                                               ; preds = %2
  store i32 1, ptr %3, align 4
  store i32 1, ptr %9, align 4
  br label %62

19:                                               ; preds = %2
  %20 = load ptr, ptr %6, align 8, !tbaa !7
  %21 = getelementptr inbounds nuw %struct.hmac_data_st, ptr %20, i32 0, i32 2
  %22 = load ptr, ptr %5, align 8, !tbaa !29
  %23 = load ptr, ptr %7, align 8, !tbaa !36
  %24 = call i32 @ossl_prov_digest_load_from_params(ptr noundef %21, ptr noundef %22, ptr noundef %23)
  %25 = icmp ne i32 %24, 0
  br i1 %25, label %27, label %26

26:                                               ; preds = %19
  store i32 0, ptr %3, align 4
  store i32 1, ptr %9, align 4
  br label %62

27:                                               ; preds = %19
  %28 = load ptr, ptr %5, align 8, !tbaa !29
  %29 = call ptr @OSSL_PARAM_locate_const(ptr noundef %28, ptr noundef @.str.6)
  store ptr %29, ptr %8, align 8, !tbaa !29
  %30 = icmp ne ptr %29, null
  br i1 %30, label %31, label %49

31:                                               ; preds = %27
  %32 = load ptr, ptr %8, align 8, !tbaa !29
  %33 = getelementptr inbounds nuw %struct.ossl_param_st, ptr %32, i32 0, i32 1
  %34 = load i32, ptr %33, align 8, !tbaa !38
  %35 = icmp ne i32 %34, 5
  br i1 %35, label %36, label %37

36:                                               ; preds = %31
  store i32 0, ptr %3, align 4
  store i32 1, ptr %9, align 4
  br label %62

37:                                               ; preds = %31
  %38 = load ptr, ptr %6, align 8, !tbaa !7
  %39 = load ptr, ptr %8, align 8, !tbaa !29
  %40 = getelementptr inbounds nuw %struct.ossl_param_st, ptr %39, i32 0, i32 2
  %41 = load ptr, ptr %40, align 8, !tbaa !40
  %42 = load ptr, ptr %8, align 8, !tbaa !29
  %43 = getelementptr inbounds nuw %struct.ossl_param_st, ptr %42, i32 0, i32 3
  %44 = load i64, ptr %43, align 8, !tbaa !41
  %45 = call i32 @hmac_setkey(ptr noundef %38, ptr noundef %41, i64 noundef %44)
  %46 = icmp ne i32 %45, 0
  br i1 %46, label %48, label %47

47:                                               ; preds = %37
  store i32 0, ptr %3, align 4
  store i32 1, ptr %9, align 4
  br label %62

48:                                               ; preds = %37
  br label %49

49:                                               ; preds = %48, %27
  %50 = load ptr, ptr %5, align 8, !tbaa !29
  %51 = call ptr @OSSL_PARAM_locate_const(ptr noundef %50, ptr noundef @.str.9)
  store ptr %51, ptr %8, align 8, !tbaa !29
  %52 = icmp ne ptr %51, null
  br i1 %52, label %53, label %61

53:                                               ; preds = %49
  %54 = load ptr, ptr %8, align 8, !tbaa !29
  %55 = load ptr, ptr %6, align 8, !tbaa !7
  %56 = getelementptr inbounds nuw %struct.hmac_data_st, ptr %55, i32 0, i32 5
  %57 = call i32 @OSSL_PARAM_get_size_t(ptr noundef %54, ptr noundef %56)
  %58 = icmp ne i32 %57, 0
  br i1 %58, label %60, label %59

59:                                               ; preds = %53
  store i32 0, ptr %3, align 4
  store i32 1, ptr %9, align 4
  br label %62

60:                                               ; preds = %53
  br label %61

61:                                               ; preds = %60, %49
  store i32 1, ptr %3, align 4
  store i32 1, ptr %9, align 4
  br label %62

62:                                               ; preds = %61, %59, %47, %36, %26, %18
  call void @llvm.lifetime.end.p0(i64 8, ptr %8) #6
  call void @llvm.lifetime.end.p0(i64 8, ptr %7) #6
  call void @llvm.lifetime.end.p0(i64 8, ptr %6) #6
  %63 = load i32, ptr %3, align 4
  ret i32 %63
}