; Function Attrs: nounwind uwtable
define internal range(i32 0, 2) i32 @hmac_set_ctx_params(ptr noundef %0, ptr noundef %1) #0 {
  %3 = load ptr, ptr %0, align 8, !tbaa !15
  %4 = tail call ptr @ossl_prov_ctx_get0_libctx(ptr noundef %3) #7
  %5 = icmp eq ptr %1, null
  br i1 %5, label %ossl_param_is_empty.exit.thread, label %ossl_param_is_empty.exit

ossl_param_is_empty.exit:                         ; preds = %2
  %6 = load ptr, ptr %1, align 8, !tbaa !30
  %.not = icmp eq ptr %6, null
  br i1 %.not, label %ossl_param_is_empty.exit.thread, label %7

7:                                                ; preds = %ossl_param_is_empty.exit
  %8 = getelementptr inbounds nuw i8, ptr %0, i64 16
  %9 = tail call i32 @ossl_prov_digest_load_from_params(ptr noundef nonnull %8, ptr noundef nonnull %1, ptr noundef %4) #7
  %.not16 = icmp eq i32 %9, 0
  br i1 %.not16, label %ossl_param_is_empty.exit.thread, label %10

10:                                               ; preds = %7
  %11 = tail call ptr @OSSL_PARAM_locate_const(ptr noundef nonnull %1, ptr noundef nonnull @.str.6) #7
  %.not17 = icmp eq ptr %11, null
  br i1 %.not17, label %21, label %12

12:                                               ; preds = %10
  %13 = getelementptr inbounds nuw i8, ptr %11, i64 8
  %14 = load i32, ptr %13, align 8, !tbaa !32
  %.not18 = icmp eq i32 %14, 5
  br i1 %.not18, label %15, label %ossl_param_is_empty.exit.thread

15:                                               ; preds = %12
  %16 = getelementptr inbounds nuw i8, ptr %11, i64 16
  %17 = load ptr, ptr %16, align 8, !tbaa !33
  %18 = getelementptr inbounds nuw i8, ptr %11, i64 24
  %19 = load i64, ptr %18, align 8, !tbaa !34
  %20 = tail call fastcc i32 @hmac_setkey(ptr noundef nonnull %0, ptr noundef %17, i64 noundef %19)
  %.not19 = icmp eq i32 %20, 0
  br i1 %.not19, label %ossl_param_is_empty.exit.thread, label %21

21:                                               ; preds = %15, %10
  %22 = tail call ptr @OSSL_PARAM_locate_const(ptr noundef nonnull %1, ptr noundef nonnull @.str.9) #7
  %.not20 = icmp eq ptr %22, null
  br i1 %.not20, label %26, label %23

23:                                               ; preds = %21
  %24 = getelementptr inbounds nuw i8, ptr %0, i64 56
  %25 = tail call i32 @OSSL_PARAM_get_size_t(ptr noundef nonnull %22, ptr noundef nonnull %24) #7
  %.not21 = icmp eq i32 %25, 0
  br i1 %.not21, label %ossl_param_is_empty.exit.thread, label %26

26:                                               ; preds = %23, %21
  br label %ossl_param_is_empty.exit.thread

ossl_param_is_empty.exit.thread:                  ; preds = %2, %23, %15, %12, %7, %ossl_param_is_empty.exit, %26
  %.0 = phi i32 [ 1, %26 ], [ 1, %ossl_param_is_empty.exit ], [ 0, %7 ], [ 0, %12 ], [ 0, %15 ], [ 0, %23 ], [ 1, %2 ]
  ret i32 %.0
}